target datalayout = "e-m:e-p270:32:32-p271:32:32-p272:64:64-i64:64-i128:128-f80:128-n8:16:32:64-S128"
target triple = "x86_64-pc-linux-gnu"

%"class.llvm::SmallVectorBase" = type { ptr, i32, i32 }
%"struct.llvm::Align" = type { i8 }
%"class.llvm::StackLifetime::LiveRange" = type { %"class.llvm::BitVector" }
%"class.llvm::BitVector" = type <{ %"class.llvm::SmallVector.13", i32, [4 x i8] }>
%"class.llvm::SmallVector.13" = type { %"class.llvm::SmallVectorImpl.14", %"struct.llvm::SmallVectorStorage.17" }
%"class.llvm::SmallVectorImpl.14" = type { %"class.llvm::SmallVectorTemplateBase.15" }
%"class.llvm::SmallVectorTemplateBase.15" = type { %"class.llvm::SmallVectorTemplateCommon.16" }
%"class.llvm::SmallVectorTemplateCommon.16" = type { %"class.llvm::SmallVectorBase" }
%"struct.llvm::SmallVectorStorage.17" = type { [48 x i8] }
%"struct.llvm::safestack::StackLayout::StackObject" = type { ptr, i32, %"struct.llvm::Align", [3 x i8], %"class.llvm::StackLifetime::LiveRange" }
%"struct.__gnu_cxx::__ops::_Iter_comp_iter" = type { i8 }

; Function Attrs: mustprogress nounwind uwtable
define internal void @"_ZSt21__inplace_stable_sortIPN4llvm9safestack11StackLayout11StackObjectEN9__gnu_cxx5__ops15_Iter_comp_iterIZNS2_13computeLayoutEvE3$_0EEEvT_SA_T0_"(ptr noundef %0, ptr noundef %1) #1 {
  %3 = alloca %"struct.__gnu_cxx::__ops::_Iter_comp_iter", align 1
  %4 = alloca ptr, align 8
  %5 = alloca ptr, align 8
  %6 = alloca %"struct.__gnu_cxx::__ops::_Iter_comp_iter", align 1
  %7 = alloca ptr, align 8
  %8 = alloca %"struct.__gnu_cxx::__ops::_Iter_comp_iter", align 1
  %9 = alloca %"struct.__gnu_cxx::__ops::_Iter_comp_iter", align 1
  %10 = alloca %"struct.__gnu_cxx::__ops::_Iter_comp_iter", align 1
  store ptr %0, ptr %4, align 8
  store ptr %1, ptr %5, align 8
  %11 = load ptr, ptr %5, align 8
  %12 = load ptr, ptr %4, align 8
  %13 = ptrtoint ptr %11 to i64
  %14 = ptrtoint ptr %12 to i64
  %15 = sub i64 %13, %14
  %16 = sdiv exact i64 %15, 88
  %17 = icmp slt i64 %16, 15
  br i1 %17, label %18, label %21

18:                                               ; preds = %2
  %19 = load ptr, ptr %4, align 8
  %20 = load ptr, ptr %5, align 8
  call void @llvm.memcpy.p0.p0.i64(ptr align 1 %6, ptr align 1 %3, i64 1, i1 false)
  call void @"_ZSt16__insertion_sortIPN4llvm9safestack11StackLayout11StackObjectEN9__gnu_cxx5__ops15_Iter_comp_iterIZNS2_13computeLayoutEvE3$_0EEEvT_SA_T0_"(ptr noundef %19, ptr noundef %20)
  br label %50

21:                                               ; preds = %2
  %22 = load ptr, ptr %4, align 8
  %23 = load ptr, ptr %5, align 8
  %24 = load ptr, ptr %4, align 8
  %25 = ptrtoint ptr %23 to i64
  %26 = ptrtoint ptr %24 to i64
  %27 = sub i64 %25, %26
  %28 = sdiv exact i64 %27, 88
  %29 = sdiv i64 %28, 2
  %30 = getelementptr inbounds %"struct.llvm::safestack::StackLayout::StackObject", ptr %22, i64 %29
  store ptr %30, ptr %7, align 8
  %31 = load ptr, ptr %4, align 8
  %32 = load ptr, ptr %7, align 8
  call void @llvm.memcpy.p0.p0.i64(ptr align 1 %8, ptr align 1 %3, i64 1, i1 false)
  call void @"_ZSt21__inplace_stable_sortIPN4llvm9safestack11StackLayout11StackObjectEN9__gnu_cxx5__ops15_Iter_comp_iterIZNS2_13computeLayoutEvE3$_0EEEvT_SA_T0_"(ptr noundef %31, ptr noundef %32)
  %33 = load ptr, ptr %7, align 8
  %34 = load ptr, ptr %5, align 8
  call void @llvm.memcpy.p0.p0.i64(ptr align 1 %9, ptr align 1 %3, i64 1, i1 false)
  call void @"_ZSt21__inplace_stable_sortIPN4llvm9safestack11StackLayout11StackObjectEN9__gnu_cxx5__ops15_Iter_comp_iterIZNS2_13computeLayoutEvE3$_0EEEvT_SA_T0_"(ptr noundef %33, ptr noundef %34)
  %35 = load ptr, ptr %4, align 8
  %36 = load ptr, ptr %7, align 8
  %37 = load ptr, ptr %5, align 8
  %38 = load ptr, ptr %7, align 8
  %39 = load ptr, ptr %4, align 8
  %40 = ptrtoint ptr %38 to i64
  %41 = ptrtoint ptr %39 to i64
  %42 = sub i64 %40, %41
  %43 = sdiv exact i64 %42, 88
  %44 = load ptr, ptr %5, align 8
  %45 = load ptr, ptr %7, align 8
  %46 = ptrtoint ptr %44 to i64
  %47 = ptrtoint ptr %45 to i64
  %48 = sub i64 %46, %47
  %49 = sdiv exact i64 %48, 88
  call void @llvm.memcpy.p0.p0.i64(ptr align 1 %10, ptr align 1 %3, i64 1, i1 false)
  call void @"_ZSt22__merge_without_bufferIPN4llvm9safestack11StackLayout11StackObjectElN9__gnu_cxx5__ops15_Iter_comp_iterIZNS2_13computeLayoutEvE3$_0EEEvT_SA_SA_T0_SB_T1_"(ptr noundef %35, ptr noundef %36, ptr noundef %37, i64 noundef %43, i64 noundef %49)
  br label %50

50:                                               ; preds = %21, %18
  ret void
}