; Function Attrs: mustprogress nounwind uwtable
define internal fastcc void @"_ZSt21__inplace_stable_sortIPN4llvm9safestack11StackLayout11StackObjectEN9__gnu_cxx5__ops15_Iter_comp_iterIZNS2_13computeLayoutEvE3$_0EEEvT_SA_T0_"(ptr noundef %0, ptr noundef %1) unnamed_addr #0 {
  %3 = ptrtoint ptr %1 to i64
  %4 = ptrtoint ptr %0 to i64
  %5 = sub i64 %3, %4
  %6 = icmp slt i64 %5, 1320
  br i1 %6, label %common.ret, label %7

common.ret:                                       ; preds = %2
  tail call fastcc void @"_ZSt16__insertion_sortIPN4llvm9safestack11StackLayout11StackObjectEN9__gnu_cxx5__ops15_Iter_comp_iterIZNS2_13computeLayoutEvE3$_0EEEvT_SA_T0_"(ptr noundef %0, ptr noundef %1)
  br label %common.ret25

common.ret25:                                     ; preds = %7, %common.ret
  ret void

7:                                                ; preds = %2
  %8 = udiv exact i64 %5, 88
  %9 = lshr i64 %8, 1
  %10 = getelementptr inbounds %"struct.llvm::safestack::StackLayout::StackObject", ptr %0, i64 %9
  tail call fastcc void @"_ZSt21__inplace_stable_sortIPN4llvm9safestack11StackLayout11StackObjectEN9__gnu_cxx5__ops15_Iter_comp_iterIZNS2_13computeLayoutEvE3$_0EEEvT_SA_T0_"(ptr noundef %0, ptr noundef %10)
  tail call fastcc void @"_ZSt21__inplace_stable_sortIPN4llvm9safestack11StackLayout11StackObjectEN9__gnu_cxx5__ops15_Iter_comp_iterIZNS2_13computeLayoutEvE3$_0EEEvT_SA_T0_"(ptr noundef %10, ptr noundef %1)
  %11 = ptrtoint ptr %10 to i64
  %12 = sub i64 %3, %11
  %13 = sdiv exact i64 %12, 88
  tail call fastcc void @"_ZSt22__merge_without_bufferIPN4llvm9safestack11StackLayout11StackObjectElN9__gnu_cxx5__ops15_Iter_comp_iterIZNS2_13computeLayoutEvE3$_0EEEvT_SA_SA_T0_SB_T1_"(ptr noundef %0, ptr noundef %10, ptr noundef %1, i64 noundef %9, i64 noundef %13)
  br label %common.ret25
}